target datalayout = "e-m:e-p270:32:32-p271:32:32-p272:64:64-i64:64-i128:128-f80:128-n8:16:32:64-S128"
target triple = "x86_64-pc-linux-gnu"

%struct.code = type { i8, i8, i16 }
%struct.z_stream_s = type { ptr, i32, i64, ptr, i32, i64, ptr, ptr, ptr, ptr, ptr, i32, i64, i64, i32 }
%struct.inflate_state = type { i32, i32, i32, i32, i32, i32, i64, i64, ptr, i32, i32, i32, i32, ptr, i64, i32, i32, i32, i32, ptr, ptr, i32, i32, i32, i32, i32, i32, ptr, [320 x i16], [288 x i16], [1444 x %struct.code], i32, i32, i32 }

; Function Attrs: nounwind uwtable
define i32 @MOZ_Z_inflateSyncPoint(ptr noundef %0) #0 {
  %2 = alloca i32, align 4
  %3 = alloca ptr, align 8
  %4 = alloca ptr, align 8
  %5 = alloca i32, align 4
  store ptr %0, ptr %3, align 8, !tbaa !3
  call void @llvm.lifetime.start.p0(i64 8, ptr %4) #4
  %6 = load ptr, ptr %3, align 8, !tbaa !3
  %7 = icmp eq ptr %6, null
  br i1 %7, label %13, label %8

8:                                                ; preds = %1
  %9 = load ptr, ptr %3, align 8, !tbaa !3
  %10 = getelementptr inbounds nuw %struct.z_stream_s, ptr %9, i32 0, i32 7
  %11 = load ptr, ptr %10, align 8, !tbaa !8
  %12 = icmp eq ptr %11, null
  br i1 %12, label %13, label %14

13:                                               ; preds = %8, %1
  store i32 -2, ptr %2, align 4
  store i32 1, ptr %5, align 4
  br label %30

14:                                               ; preds = %8
  %15 = load ptr, ptr %3, align 8, !tbaa !3
  %16 = getelementptr inbounds nuw %struct.z_stream_s, ptr %15, i32 0, i32 7
  %17 = load ptr, ptr %16, align 8, !tbaa !8
  store ptr %17, ptr %4, align 8, !tbaa !14
  %18 = load ptr, ptr %4, align 8, !tbaa !14
  %19 = getelementptr inbounds nuw %struct.inflate_state, ptr %18, i32 0, i32 0
  %20 = load i32, ptr %19, align 8, !tbaa !24
  %21 = icmp eq i32 %20, 13
  br i1 %21, label %22, label %27

22:                                               ; preds = %14
  %23 = load ptr, ptr %4, align 8, !tbaa !14
  %24 = getelementptr inbounds nuw %struct.inflate_state, ptr %23, i32 0, i32 15
  %25 = load i32, ptr %24, align 8, !tbaa !30
  %26 = icmp eq i32 %25, 0
  br label %27

27:                                               ; preds = %22, %14
  %28 = phi i1 [ false, %14 ], [ %26, %22 ]
  %29 = zext i1 %28 to i32
  store i32 %29, ptr %2, align 4
  store i32 1, ptr %5, align 4
  br label %30

30:                                               ; preds = %27, %13
  call void @llvm.lifetime.end.p0(i64 8, ptr %4) #4
  %31 = load i32, ptr %2, align 4
  ret i32 %31
}